; Function Attrs: mustprogress uwtable
define dso_local noundef nonnull align 8 dereferenceable(24) ptr @_ZN3tev8colormap7viridisEv() local_unnamed_addr #1 personality ptr @__gxx_personality_v0 {
  %1 = alloca [1024 x float], align 4
  %2 = load atomic i8, ptr @_ZGVZN3tev8colormap7viridisEvE4data acquire, align 8
  %3 = icmp eq i8 %2, 0
  br i1 %3, label %4, label %9, !prof !5

4:                                                ; preds = %0
  %5 = tail call i32 @__cxa_guard_acquire(ptr nonnull @_ZGVZN3tev8colormap7viridisEvE4data) #10
  %.not = icmp eq i32 %5, 0
  br i1 %.not, label %9, label %6

6:                                                ; preds = %4
  call void @llvm.memcpy.p0.p0.i64(ptr noundef nonnull align 4 dereferenceable(4096) %1, ptr noundef nonnull align 4 dereferenceable(4096) @constinit.3, i64 4096, i1 false)
  invoke void @_ZNSt3__16vectorIfNS_9allocatorIfEEEC2B8ne190000ESt16initializer_listIfE(ptr noundef nonnull align 8 dereferenceable(24) @_ZZN3tev8colormap7viridisEvE4data, ptr nonnull %1, i64 1024)
          to label %7 unwind label %10

7:                                                ; preds = %6
  %8 = call i32 @__cxa_atexit(ptr nonnull @_ZNSt3__16vectorIfNS_9allocatorIfEEED2B8ne190000Ev, ptr nonnull @_ZZN3tev8colormap7viridisEvE4data, ptr nonnull @__dso_handle) #10
  call void @__cxa_guard_release(ptr nonnull @_ZGVZN3tev8colormap7viridisEvE4data) #10
  br label %9

9:                                                ; preds = %7, %4, %0
  ret ptr @_ZZN3tev8colormap7viridisEvE4data

10:                                               ; preds = %6
  %11 = landingpad { ptr, i32 }
          cleanup
  call void @__cxa_guard_abort(ptr nonnull @_ZGVZN3tev8colormap7viridisEvE4data) #10
  resume { ptr, i32 } %11
}